target datalayout = "e-m:e-p270:32:32-p271:32:32-p272:64:64-i64:64-i128:128-f80:128-n8:16:32:64-S128"
target triple = "x86_64-pc-linux-gnu"

%"class.std::__cxx11::basic_string" = type { %"struct.std::__cxx11::basic_string<char>::_Alloc_hider", i64, %union.anon }
%"struct.std::__cxx11::basic_string<char>::_Alloc_hider" = type { ptr }
%union.anon = type { i64, [8 x i8] }
%"class.std::allocator.12" = type { i8 }

@_ZZN32pxrInternal_v0_24__pxrReserved__25UsdImagingAdapterRegistry25AreExternalPluginsEnabledEvE25areExternalPluginsEnabled = internal global i8 0, align 1
@_ZGVZN32pxrInternal_v0_24__pxrReserved__25UsdImagingAdapterRegistry25AreExternalPluginsEnabledEvE25areExternalPluginsEnabled = internal global i64 0, align 8
@.str.9 = private unnamed_addr constant [26 x i8] c"USDIMAGING_ENABLE_PLUGINS\00", align 1

; Function Attrs: mustprogress uwtable
define noundef zeroext i1 @_ZN32pxrInternal_v0_24__pxrReserved__25UsdImagingAdapterRegistry25AreExternalPluginsEnabledEv() #0 align 2 personality ptr @__gxx_personality_v0 {
  %1 = alloca %"class.std::__cxx11::basic_string", align 8
  %2 = alloca %"class.std::allocator.12", align 1
  %3 = alloca ptr, align 8
  %4 = alloca i32, align 4
  %5 = load atomic i8, ptr @_ZGVZN32pxrInternal_v0_24__pxrReserved__25UsdImagingAdapterRegistry25AreExternalPluginsEnabledEvE25areExternalPluginsEnabled acquire, align 8
  %6 = icmp eq i8 %5, 0
  br i1 %6, label %7, label %15, !prof !7

7:                                                ; preds = %0
  %8 = call i32 @__cxa_guard_acquire(ptr @_ZGVZN32pxrInternal_v0_24__pxrReserved__25UsdImagingAdapterRegistry25AreExternalPluginsEnabledEvE25areExternalPluginsEnabled) #6
  %9 = icmp ne i32 %8, 0
  br i1 %9, label %10, label %15

10:                                               ; preds = %7
  call void @_ZNSaIcEC1Ev(ptr noundef nonnull align 1 dereferenceable(1) %2) #6
  invoke void @_ZNSt7__cxx1112basic_stringIcSt11char_traitsIcESaIcEEC2IS3_EEPKcRKS3_(ptr noundef nonnull align 8 dereferenceable(32) %1, ptr noundef @.str.9, ptr noundef nonnull align 1 dereferenceable(1) %2)
          to label %11 unwind label %18

11:                                               ; preds = %10
  %12 = invoke noundef zeroext i1 @_ZN32pxrInternal_v0_24__pxrReserved__12TfGetenvBoolERKNSt7__cxx1112basic_stringIcSt11char_traitsIcESaIcEEEb(ptr noundef nonnull align 8 dereferenceable(32) %1, i1 noundef zeroext true)
          to label %13 unwind label %22

13:                                               ; preds = %11
  call void @_ZNSt7__cxx1112basic_stringIcSt11char_traitsIcESaIcEED1Ev(ptr noundef nonnull align 8 dereferenceable(32) %1) #6
  call void @_ZNSaIcED1Ev(ptr noundef nonnull align 1 dereferenceable(1) %2) #6
  %14 = zext i1 %12 to i8
  store i8 %14, ptr @_ZZN32pxrInternal_v0_24__pxrReserved__25UsdImagingAdapterRegistry25AreExternalPluginsEnabledEvE25areExternalPluginsEnabled, align 1
  call void @__cxa_guard_release(ptr @_ZGVZN32pxrInternal_v0_24__pxrReserved__25UsdImagingAdapterRegistry25AreExternalPluginsEnabledEvE25areExternalPluginsEnabled) #6
  br label %15

15:                                               ; preds = %13, %7, %0
  %16 = load i8, ptr @_ZZN32pxrInternal_v0_24__pxrReserved__25UsdImagingAdapterRegistry25AreExternalPluginsEnabledEvE25areExternalPluginsEnabled, align 1
  %17 = trunc i8 %16 to i1
  ret i1 %17

18:                                               ; preds = %10
  %19 = landingpad { ptr, i32 }
          cleanup
  %20 = extractvalue { ptr, i32 } %19, 0
  store ptr %20, ptr %3, align 8
  %21 = extractvalue { ptr, i32 } %19, 1
  store i32 %21, ptr %4, align 4
  br label %26

22:                                               ; preds = %11
  %23 = landingpad { ptr, i32 }
          cleanup
  %24 = extractvalue { ptr, i32 } %23, 0
  store ptr %24, ptr %3, align 8
  %25 = extractvalue { ptr, i32 } %23, 1
  store i32 %25, ptr %4, align 4
  call void @_ZNSt7__cxx1112basic_stringIcSt11char_traitsIcESaIcEED1Ev(ptr noundef nonnull align 8 dereferenceable(32) %1) #6
  br label %26

26:                                               ; preds = %22, %18
  call void @_ZNSaIcED1Ev(ptr noundef nonnull align 1 dereferenceable(1) %2) #6
  call void @__cxa_guard_abort(ptr @_ZGVZN32pxrInternal_v0_24__pxrReserved__25UsdImagingAdapterRegistry25AreExternalPluginsEnabledEvE25areExternalPluginsEnabled) #6
  br label %27

27:                                               ; preds = %26
  %28 = load ptr, ptr %3, align 8
  %29 = load i32, ptr %4, align 4
  %30 = insertvalue { ptr, i32 } poison, ptr %28, 0
  %31 = insertvalue { ptr, i32 } %30, i32 %29, 1
  resume { ptr, i32 } %31
}