; Function Attrs: mustprogress uwtable
define noundef zeroext i1 @_ZN32pxrInternal_v0_24__pxrReserved__25UsdImagingAdapterRegistry25AreExternalPluginsEnabledEv() local_unnamed_addr #0 align 2 personality ptr @__gxx_personality_v0 {
  %1 = alloca %"class.std::__cxx11::basic_string", align 8
  %2 = alloca %"class.std::allocator.12", align 1
  %3 = load atomic i8, ptr @_ZGVZN32pxrInternal_v0_24__pxrReserved__25UsdImagingAdapterRegistry25AreExternalPluginsEnabledEvE25areExternalPluginsEnabled acquire, align 8
  %4 = icmp eq i8 %3, 0
  br i1 %4, label %5, label %12, !prof !10

5:                                                ; preds = %0
  %6 = tail call i32 @__cxa_guard_acquire(ptr nonnull @_ZGVZN32pxrInternal_v0_24__pxrReserved__25UsdImagingAdapterRegistry25AreExternalPluginsEnabledEvE25areExternalPluginsEnabled) #20
  %.not = icmp eq i32 %6, 0
  br i1 %.not, label %12, label %7

7:                                                ; preds = %5
  call void @_ZNSaIcEC1Ev(ptr noundef nonnull align 1 dereferenceable(1) %2) #20
  invoke void @_ZNSt7__cxx1112basic_stringIcSt11char_traitsIcESaIcEEC2IS3_EEPKcRKS3_(ptr noundef nonnull align 8 dereferenceable(32) %1, ptr noundef nonnull @.str.9, ptr noundef nonnull align 1 dereferenceable(1) %2)
          to label %8 unwind label %15

8:                                                ; preds = %7
  %9 = invoke noundef zeroext i1 @_ZN32pxrInternal_v0_24__pxrReserved__12TfGetenvBoolERKNSt7__cxx1112basic_stringIcSt11char_traitsIcESaIcEEEb(ptr noundef nonnull align 8 dereferenceable(32) %1, i1 noundef zeroext true)
          to label %10 unwind label %17

10:                                               ; preds = %8
  call void @_ZNSt7__cxx1112basic_stringIcSt11char_traitsIcESaIcEED1Ev(ptr noundef nonnull align 8 dereferenceable(32) %1) #20
  call void @_ZNSaIcED1Ev(ptr noundef nonnull align 1 dereferenceable(1) %2) #20
  %11 = zext i1 %9 to i8
  store i8 %11, ptr @_ZZN32pxrInternal_v0_24__pxrReserved__25UsdImagingAdapterRegistry25AreExternalPluginsEnabledEvE25areExternalPluginsEnabled, align 1
  call void @__cxa_guard_release(ptr nonnull @_ZGVZN32pxrInternal_v0_24__pxrReserved__25UsdImagingAdapterRegistry25AreExternalPluginsEnabledEvE25areExternalPluginsEnabled) #20
  br label %12

12:                                               ; preds = %10, %5, %0
  %13 = load i8, ptr @_ZZN32pxrInternal_v0_24__pxrReserved__25UsdImagingAdapterRegistry25AreExternalPluginsEnabledEvE25areExternalPluginsEnabled, align 1
  %14 = trunc nuw i8 %13 to i1
  ret i1 %14

15:                                               ; preds = %7
  %16 = landingpad { ptr, i32 }
          cleanup
  br label %19

17:                                               ; preds = %8
  %18 = landingpad { ptr, i32 }
          cleanup
  call void @_ZNSt7__cxx1112basic_stringIcSt11char_traitsIcESaIcEED1Ev(ptr noundef nonnull align 8 dereferenceable(32) %1) #20
  br label %19

19:                                               ; preds = %17, %15
  %.pn = phi { ptr, i32 } [ %18, %17 ], [ %16, %15 ]
  call void @_ZNSaIcED1Ev(ptr noundef nonnull align 1 dereferenceable(1) %2) #20
  call void @__cxa_guard_abort(ptr nonnull @_ZGVZN32pxrInternal_v0_24__pxrReserved__25UsdImagingAdapterRegistry25AreExternalPluginsEnabledEvE25areExternalPluginsEnabled) #20
  resume { ptr, i32 } %.pn
}